target datalayout = "e-m:e-p270:32:32-p271:32:32-p272:64:64-i64:64-i128:128-f80:128-n8:16:32:64-S128"
target triple = "x86_64-pc-linux-gnu"

%class.MemReporterBase = type { i64, ptr, %class.StreamAutoIndentor }
%class.StreamAutoIndentor = type <{ ptr, i8, [7 x i8] }>
%class.MetaspaceStats = type { i64, i64, i64 }

@.str.10 = private unnamed_addr constant [2 x i8] c")\00", align 1
@.str.32 = private unnamed_addr constant [7 x i8] c"(  %s)\00", align 1
@.str.33 = private unnamed_addr constant [6 x i8] c"(    \00", align 1
@.str.49 = private unnamed_addr constant [8 x i8] c" %+ld%s\00", align 1
@.str.62 = private unnamed_addr constant [16 x i8] c"(    used=%lu%s\00", align 1
@.str.63 = private unnamed_addr constant [26 x i8] c"(    waste=%lu%s =%2.2f%%\00", align 1

; Function Attrs: mustprogress nounwind uwtable
define linkonce_odr hidden noundef i64 @_ZN7NMTUtil15amount_in_scaleEmm(i64 noundef %0, i64 noundef %1) #1 comdat align 2 {
  %3 = alloca i64, align 8
  %4 = alloca i64, align 8
  store i64 %0, ptr %3, align 8
  store i64 %1, ptr %4, align 8
  %5 = load i64, ptr %3, align 8
  %6 = load i64, ptr %4, align 8
  %7 = udiv i64 %6, 2
  %8 = add i64 %5, %7
  %9 = load i64, ptr %4, align 8
  %10 = udiv i64 %8, %9
  ret i64 %10
}

; Function Attrs: mustprogress nounwind uwtable
define internal void @_ZL4swapImEvRT_S1_(ptr noundef nonnull align 8 dereferenceable(8) %0, ptr noundef nonnull align 8 dereferenceable(8) %1) #1 {
  %3 = alloca ptr, align 8
  %4 = alloca ptr, align 8
  %5 = alloca i64, align 8
  store ptr %0, ptr %3, align 8
  store ptr %1, ptr %4, align 8
  %6 = load ptr, ptr %3, align 8
  %7 = load i64, ptr %6, align 8
  store i64 %7, ptr %5, align 8
  %8 = load ptr, ptr %4, align 8
  %9 = load i64, ptr %8, align 8
  %10 = load ptr, ptr %3, align 8
  store i64 %9, ptr %10, align 8
  %11 = load i64, ptr %5, align 8
  %12 = load ptr, ptr %4, align 8
  store i64 %11, ptr %12, align 8
  ret void
}

; Function Attrs: mustprogress nounwind uwtable
define linkonce_odr hidden noundef i64 @_ZNK15MemReporterBase23amount_in_current_scaleEm(ptr noundef nonnull align 8 dereferenceable(32) %0, i64 noundef %1) #1 comdat align 2 {
  %3 = alloca ptr, align 8
  %4 = alloca i64, align 8
  store ptr %0, ptr %3, align 8
  store i64 %1, ptr %4, align 8
  %5 = load ptr, ptr %3, align 8
  %6 = load i64, ptr %4, align 8
  %7 = getelementptr inbounds %class.MemReporterBase, ptr %5, i32 0, i32 0
  %8 = load i64, ptr %7, align 8
  %9 = call noundef i64 @_ZN7NMTUtil15amount_in_scaleEmm(i64 noundef %6, i64 noundef %8)
  ret i64 %9
}

; Function Attrs: mustprogress nounwind uwtable
define linkonce_odr hidden noundef i64 @_ZNK15MemReporterBase21diff_in_current_scaleEmm(ptr noundef nonnull align 8 dereferenceable(32) %0, i64 noundef %1, i64 noundef %2) #1 comdat align 2 {
  %4 = alloca ptr, align 8
  %5 = alloca i64, align 8
  %6 = alloca i64, align 8
  %7 = alloca i8, align 1
  %8 = alloca i64, align 8
  %9 = alloca i64, align 8
  %10 = alloca i64, align 8
  store ptr %0, ptr %4, align 8
  store i64 %1, ptr %5, align 8
  store i64 %2, ptr %6, align 8
  %11 = load ptr, ptr %4, align 8
  store i8 0, ptr %7, align 1
  %12 = load i64, ptr %5, align 8
  %13 = load i64, ptr %6, align 8
  %14 = icmp ult i64 %12, %13
  br i1 %14, label %15, label %16

15:                                               ; preds = %3
  store i8 1, ptr %7, align 1
  call void @_ZL4swapImEvRT_S1_(ptr noundef nonnull align 8 dereferenceable(8) %5, ptr noundef nonnull align 8 dereferenceable(8) %6)
  br label %16

16:                                               ; preds = %15, %3
  %17 = load i64, ptr %5, align 8
  %18 = load i64, ptr %6, align 8
  %19 = sub i64 %17, %18
  store i64 %19, ptr %8, align 8
  %20 = load i64, ptr %8, align 8
  %21 = getelementptr inbounds %class.MemReporterBase, ptr %11, i32 0, i32 0
  %22 = load i64, ptr %21, align 8
  %23 = udiv i64 %20, %22
  store i64 %23, ptr %9, align 8
  %24 = load i64, ptr %8, align 8
  %25 = getelementptr inbounds %class.MemReporterBase, ptr %11, i32 0, i32 0
  %26 = load i64, ptr %25, align 8
  %27 = urem i64 %24, %26
  %28 = getelementptr inbounds %class.MemReporterBase, ptr %11, i32 0, i32 0
  %29 = load i64, ptr %28, align 8
  %30 = sub i64 %29, 1
  %31 = udiv i64 %30, 2
  %32 = icmp ugt i64 %27, %31
  br i1 %32, label %33, label %36

33:                                               ; preds = %16
  %34 = load i64, ptr %9, align 8
  %35 = add i64 %34, 1
  store i64 %35, ptr %9, align 8
  br label %36

36:                                               ; preds = %33, %16
  %37 = load i64, ptr %9, align 8
  store i64 %37, ptr %10, align 8
  %38 = load i8, ptr %7, align 1
  %39 = trunc i8 %38 to i1
  br i1 %39, label %40, label %43

40:                                               ; preds = %36
  %41 = load i64, ptr %10, align 8
  %42 = sub nsw i64 0, %41
  br label %45

43:                                               ; preds = %36
  %44 = load i64, ptr %10, align 8
  br label %45

45:                                               ; preds = %43, %40
  %46 = phi i64 [ %42, %40 ], [ %44, %43 ]
  ret i64 %46
}

; Function Attrs: mustprogress nounwind uwtable
define linkonce_odr hidden noundef i64 @_ZNK14MetaspaceStats4usedEv(ptr noundef nonnull align 8 dereferenceable(24) %0) #1 comdat align 2 {
  %2 = alloca ptr, align 8
  store ptr %0, ptr %2, align 8
  %3 = load ptr, ptr %2, align 8
  %4 = getelementptr inbounds %class.MetaspaceStats, ptr %3, i32 0, i32 2
  %5 = load i64, ptr %4, align 8
  ret i64 %5
}

; Function Attrs: mustprogress nounwind uwtable
define linkonce_odr hidden noundef i64 @_ZNK14MetaspaceStats9committedEv(ptr noundef nonnull align 8 dereferenceable(24) %0) #1 comdat align 2 {
  %2 = alloca ptr, align 8
  store ptr %0, ptr %2, align 8
  %3 = load ptr, ptr %2, align 8
  %4 = getelementptr inbounds %class.MetaspaceStats, ptr %3, i32 0, i32 1
  %5 = load i64, ptr %4, align 8
  ret i64 %5
}

; Function Attrs: mustprogress nounwind uwtable
define linkonce_odr hidden noundef i64 @_ZNK14MetaspaceStats8reservedEv(ptr noundef nonnull align 8 dereferenceable(24) %0) #1 comdat align 2 {
  %2 = alloca ptr, align 8
  store ptr %0, ptr %2, align 8
  %3 = load ptr, ptr %2, align 8
  %4 = getelementptr inbounds %class.MetaspaceStats, ptr %3, i32 0, i32 0
  %5 = load i64, ptr %4, align 8
  ret i64 %5
}

; Function Attrs: mustprogress nounwind uwtable
define linkonce_odr hidden noundef ptr @_ZNK15MemReporterBase13current_scaleEv(ptr noundef nonnull align 8 dereferenceable(32) %0) #1 comdat align 2 {
  %2 = alloca ptr, align 8
  store ptr %0, ptr %2, align 8
  %3 = load ptr, ptr %2, align 8
  %4 = getelementptr inbounds %class.MemReporterBase, ptr %3, i32 0, i32 0
  %5 = load i64, ptr %4, align 8
  %6 = call noundef ptr @_ZN7NMTUtil10scale_nameEm(i64 noundef %5)
  ret ptr %6
}

; Function Attrs: mustprogress nounwind uwtable
define linkonce_odr hidden noundef ptr @_ZNK15MemReporterBase6outputEv(ptr noundef nonnull align 8 dereferenceable(32) %0) #1 comdat align 2 {
  %2 = alloca ptr, align 8
  store ptr %0, ptr %2, align 8
  %3 = load ptr, ptr %2, align 8
  %4 = getelementptr inbounds %class.MemReporterBase, ptr %3, i32 0, i32 1
  %5 = load ptr, ptr %4, align 8
  ret ptr %5
}

; Function Attrs: mustprogress nounwind uwtable
define hidden void @_ZNK22MemSummaryDiffReporter20print_metaspace_diffEPKcRK14MetaspaceStatsS4_(ptr noundef nonnull align 8 dereferenceable(56) %0, ptr noundef %1, ptr noundef nonnull align 8 dereferenceable(24) %2, ptr noundef nonnull align 8 dereferenceable(24) %3) #1 align 2 {
  %5 = alloca ptr, align 8
  %6 = alloca ptr, align 8
  %7 = alloca ptr, align 8
  %8 = alloca ptr, align 8
  %9 = alloca ptr, align 8
  %10 = alloca ptr, align 8
  %11 = alloca i64, align 8
  %12 = alloca i64, align 8
  %13 = alloca i64, align 8
  %14 = alloca i64, align 8
  %15 = alloca float, align 4
  store ptr %0, ptr %5, align 8
  store ptr %1, ptr %6, align 8
  store ptr %2, ptr %7, align 8
  store ptr %3, ptr %8, align 8
  %16 = load ptr, ptr %5, align 8
  %17 = getelementptr inbounds i8, ptr %16, i64 8
  %18 = call noundef ptr @_ZNK15MemReporterBase6outputEv(ptr noundef nonnull align 8 dereferenceable(32) %17)
  store ptr %18, ptr %9, align 8
  %19 = getelementptr inbounds i8, ptr %16, i64 8
  %20 = call noundef ptr @_ZNK15MemReporterBase13current_scaleEv(ptr noundef nonnull align 8 dereferenceable(32) %19)
  store ptr %20, ptr %10, align 8
  %21 = load ptr, ptr %9, align 8
  %22 = load ptr, ptr %6, align 8
  call void (ptr, ptr, ...) @_ZN12outputStream8print_crEPKcz(ptr noundef nonnull align 8 dereferenceable(56) %21, ptr noundef @.str.32, ptr noundef %22)
  %23 = load ptr, ptr %9, align 8
  call void (ptr, ptr, ...) @_ZN12outputStream5printEPKcz(ptr noundef nonnull align 8 dereferenceable(56) %23, ptr noundef @.str.33)
  %24 = load ptr, ptr %7, align 8
  %25 = call noundef i64 @_ZNK14MetaspaceStats8reservedEv(ptr noundef nonnull align 8 dereferenceable(24) %24)
  %26 = load ptr, ptr %7, align 8
  %27 = call noundef i64 @_ZNK14MetaspaceStats9committedEv(ptr noundef nonnull align 8 dereferenceable(24) %26)
  %28 = load ptr, ptr %8, align 8
  %29 = call noundef i64 @_ZNK14MetaspaceStats8reservedEv(ptr noundef nonnull align 8 dereferenceable(24) %28)
  %30 = load ptr, ptr %8, align 8
  %31 = call noundef i64 @_ZNK14MetaspaceStats9committedEv(ptr noundef nonnull align 8 dereferenceable(24) %30)
  call void @_ZNK22MemSummaryDiffReporter25print_virtual_memory_diffEmmmm(ptr noundef nonnull align 8 dereferenceable(56) %16, i64 noundef %25, i64 noundef %27, i64 noundef %29, i64 noundef %31)
  %32 = load ptr, ptr %9, align 8
  call void (ptr, ptr, ...) @_ZN12outputStream8print_crEPKcz(ptr noundef nonnull align 8 dereferenceable(56) %32, ptr noundef @.str.10)
  %33 = getelementptr inbounds i8, ptr %16, i64 8
  %34 = load ptr, ptr %7, align 8
  %35 = call noundef i64 @_ZNK14MetaspaceStats4usedEv(ptr noundef nonnull align 8 dereferenceable(24) %34)
  %36 = load ptr, ptr %8, align 8
  %37 = call noundef i64 @_ZNK14MetaspaceStats4usedEv(ptr noundef nonnull align 8 dereferenceable(24) %36)
  %38 = call noundef i64 @_ZNK15MemReporterBase21diff_in_current_scaleEmm(ptr noundef nonnull align 8 dereferenceable(32) %33, i64 noundef %35, i64 noundef %37)
  store i64 %38, ptr %11, align 8
  %39 = load ptr, ptr %7, align 8
  %40 = call noundef i64 @_ZNK14MetaspaceStats9committedEv(ptr noundef nonnull align 8 dereferenceable(24) %39)
  %41 = load ptr, ptr %7, align 8
  %42 = call noundef i64 @_ZNK14MetaspaceStats4usedEv(ptr noundef nonnull align 8 dereferenceable(24) %41)
  %43 = sub i64 %40, %42
  store i64 %43, ptr %12, align 8
  %44 = load ptr, ptr %8, align 8
  %45 = call noundef i64 @_ZNK14MetaspaceStats9committedEv(ptr noundef nonnull align 8 dereferenceable(24) %44)
  %46 = load ptr, ptr %8, align 8
  %47 = call noundef i64 @_ZNK14MetaspaceStats4usedEv(ptr noundef nonnull align 8 dereferenceable(24) %46)
  %48 = sub i64 %45, %47
  store i64 %48, ptr %13, align 8
  %49 = getelementptr inbounds i8, ptr %16, i64 8
  %50 = load i64, ptr %12, align 8
  %51 = load i64, ptr %13, align 8
  %52 = call noundef i64 @_ZNK15MemReporterBase21diff_in_current_scaleEmm(ptr noundef nonnull align 8 dereferenceable(32) %49, i64 noundef %50, i64 noundef %51)
  store i64 %52, ptr %14, align 8
  %53 = load ptr, ptr %9, align 8
  %54 = getelementptr inbounds i8, ptr %16, i64 8
  %55 = load ptr, ptr %7, align 8
  %56 = call noundef i64 @_ZNK14MetaspaceStats4usedEv(ptr noundef nonnull align 8 dereferenceable(24) %55)
  %57 = call noundef i64 @_ZNK15MemReporterBase23amount_in_current_scaleEm(ptr noundef nonnull align 8 dereferenceable(32) %54, i64 noundef %56)
  %58 = load ptr, ptr %10, align 8
  call void (ptr, ptr, ...) @_ZN12outputStream5printEPKcz(ptr noundef nonnull align 8 dereferenceable(56) %53, ptr noundef @.str.62, i64 noundef %57, ptr noundef %58)
  %59 = load i64, ptr %11, align 8
  %60 = icmp ne i64 %59, 0
  br i1 %60, label %61, label %65

61:                                               ; preds = %4
  %62 = load ptr, ptr %9, align 8
  %63 = load i64, ptr %11, align 8
  %64 = load ptr, ptr %10, align 8
  call void (ptr, ptr, ...) @_ZN12outputStream5printEPKcz(ptr noundef nonnull align 8 dereferenceable(56) %62, ptr noundef @.str.49, i64 noundef %63, ptr noundef %64)
  br label %65

65:                                               ; preds = %61, %4
  %66 = load ptr, ptr %9, align 8
  call void (ptr, ptr, ...) @_ZN12outputStream8print_crEPKcz(ptr noundef nonnull align 8 dereferenceable(56) %66, ptr noundef @.str.10)
  %67 = load ptr, ptr %7, align 8
  %68 = call noundef i64 @_ZNK14MetaspaceStats9committedEv(ptr noundef nonnull align 8 dereferenceable(24) %67)
  %69 = icmp eq i64 %68, 0
  br i1 %69, label %70, label %71

70:                                               ; preds = %65
  br label %79

71:                                               ; preds = %65
  %72 = load i64, ptr %12, align 8
  %73 = uitofp i64 %72 to float
  %74 = fmul float %73, 1.000000e+02
  %75 = load ptr, ptr %7, align 8
  %76 = call noundef i64 @_ZNK14MetaspaceStats9committedEv(ptr noundef nonnull align 8 dereferenceable(24) %75)
  %77 = uitofp i64 %76 to float
  %78 = fdiv float %74, %77
  br label %79

79:                                               ; preds = %71, %70
  %80 = phi float [ 0.000000e+00, %70 ], [ %78, %71 ]
  store float %80, ptr %15, align 4
  %81 = load ptr, ptr %9, align 8
  %82 = getelementptr inbounds i8, ptr %16, i64 8
  %83 = load i64, ptr %12, align 8
  %84 = call noundef i64 @_ZNK15MemReporterBase23amount_in_current_scaleEm(ptr noundef nonnull align 8 dereferenceable(32) %82, i64 noundef %83)
  %85 = load ptr, ptr %10, align 8
  %86 = load float, ptr %15, align 4
  %87 = fpext float %86 to double
  call void (ptr, ptr, ...) @_ZN12outputStream5printEPKcz(ptr noundef nonnull align 8 dereferenceable(56) %81, ptr noundef @.str.63, i64 noundef %84, ptr noundef %85, double noundef %87)
  %88 = load i64, ptr %14, align 8
  %89 = icmp ne i64 %88, 0
  br i1 %89, label %90, label %94

90:                                               ; preds = %79
  %91 = load ptr, ptr %9, align 8
  %92 = load i64, ptr %14, align 8
  %93 = load ptr, ptr %10, align 8
  call void (ptr, ptr, ...) @_ZN12outputStream5printEPKcz(ptr noundef nonnull align 8 dereferenceable(56) %91, ptr noundef @.str.49, i64 noundef %92, ptr noundef %93)
  br label %94

94:                                               ; preds = %90, %79
  %95 = load ptr, ptr %9, align 8
  call void (ptr, ptr, ...) @_ZN12outputStream8print_crEPKcz(ptr noundef nonnull align 8 dereferenceable(56) %95, ptr noundef @.str.10)
  ret void
}