; Function Attrs: mustprogress nounwind uwtable
define hidden void @_ZNK22MemSummaryDiffReporter20print_metaspace_diffEPKcRK14MetaspaceStatsS4_(ptr nocapture noundef nonnull readonly align 8 dereferenceable(56) %0, ptr noundef %1, ptr nocapture noundef nonnull readonly align 8 dereferenceable(24) %2, ptr nocapture noundef nonnull readonly align 8 dereferenceable(24) %3) local_unnamed_addr #0 align 2 {
  %5 = getelementptr inbounds i8, ptr %0, i64 8
  %6 = getelementptr inbounds i8, ptr %0, i64 16
  %7 = load ptr, ptr %6, align 8
  %8 = load i64, ptr %5, align 8
  %9 = tail call noundef ptr @_ZN7NMTUtil10scale_nameEm(i64 noundef %8) #7
  tail call void (ptr, ptr, ...) @_ZN12outputStream8print_crEPKcz(ptr noundef nonnull align 8 dereferenceable(56) %7, ptr noundef nonnull @.str.32, ptr noundef %1) #7
  tail call void (ptr, ptr, ...) @_ZN12outputStream5printEPKcz(ptr noundef nonnull align 8 dereferenceable(56) %7, ptr noundef nonnull @.str.33) #7
  %10 = load i64, ptr %2, align 8
  %11 = getelementptr inbounds i8, ptr %2, i64 8
  %12 = load i64, ptr %11, align 8
  %13 = load i64, ptr %3, align 8
  %14 = getelementptr inbounds i8, ptr %3, i64 8
  %15 = load i64, ptr %14, align 8
  tail call void @_ZNK22MemSummaryDiffReporter25print_virtual_memory_diffEmmmm(ptr noundef nonnull align 8 dereferenceable(56) %0, i64 noundef %10, i64 noundef %12, i64 noundef %13, i64 noundef %15)
  tail call void (ptr, ptr, ...) @_ZN12outputStream8print_crEPKcz(ptr noundef nonnull align 8 dereferenceable(56) %7, ptr noundef nonnull @.str.10) #7
  %16 = getelementptr inbounds i8, ptr %2, i64 16
  %17 = load i64, ptr %16, align 8
  %18 = getelementptr inbounds i8, ptr %3, i64 16
  %19 = load i64, ptr %18, align 8
  %20 = icmp ult i64 %17, %19
  %spec.select12.i = tail call i64 @llvm.umax.i64(i64 %17, i64 %19)
  %spec.select13.i = tail call i64 @llvm.umin.i64(i64 %17, i64 %19)
  %21 = sub i64 %spec.select12.i, %spec.select13.i
  %22 = load i64, ptr %5, align 8
  %23 = udiv i64 %21, %22
  %24 = urem i64 %21, %22
  %25 = add i64 %22, -1
  %26 = lshr i64 %25, 1
  %27 = icmp ugt i64 %24, %26
  %28 = zext i1 %27 to i64
  %spec.select.i = add i64 %23, %28
  %29 = sub nsw i64 0, %spec.select.i
  %30 = select i1 %20, i64 %29, i64 %spec.select.i
  %31 = load i64, ptr %11, align 8
  %32 = sub i64 %31, %17
  %33 = load i64, ptr %14, align 8
  %34 = sub i64 %33, %19
  %35 = icmp ult i64 %32, %34
  %spec.select12.i38 = tail call i64 @llvm.umax.i64(i64 %32, i64 %34)
  %spec.select13.i39 = tail call i64 @llvm.umin.i64(i64 %32, i64 %34)
  %36 = sub i64 %spec.select12.i38, %spec.select13.i39
  %37 = udiv i64 %36, %22
  %38 = urem i64 %36, %22
  %39 = icmp ugt i64 %38, %26
  %40 = zext i1 %39 to i64
  %spec.select.i40 = add i64 %37, %40
  %41 = sub nsw i64 0, %spec.select.i40
  %42 = select i1 %35, i64 %41, i64 %spec.select.i40
  %43 = lshr i64 %22, 1
  %44 = add i64 %43, %17
  %45 = udiv i64 %44, %22
  tail call void (ptr, ptr, ...) @_ZN12outputStream5printEPKcz(ptr noundef nonnull align 8 dereferenceable(56) %7, ptr noundef nonnull @.str.62, i64 noundef %45, ptr noundef %9) #7
  %.not = icmp eq i64 %30, 0
  br i1 %.not, label %47, label %46

46:                                               ; preds = %4
  tail call void (ptr, ptr, ...) @_ZN12outputStream5printEPKcz(ptr noundef nonnull align 8 dereferenceable(56) %7, ptr noundef nonnull @.str.49, i64 noundef %30, ptr noundef %9) #7
  br label %47

47:                                               ; preds = %46, %4
  tail call void (ptr, ptr, ...) @_ZN12outputStream8print_crEPKcz(ptr noundef nonnull align 8 dereferenceable(56) %7, ptr noundef nonnull @.str.10) #7
  %48 = load i64, ptr %11, align 8
  %49 = icmp eq i64 %48, 0
  br i1 %49, label %56, label %50

50:                                               ; preds = %47
  %51 = uitofp i64 %32 to float
  %52 = fmul float %51, 1.000000e+02
  %53 = uitofp i64 %48 to float
  %54 = fdiv float %52, %53
  %55 = fpext float %54 to double
  br label %56

56:                                               ; preds = %47, %50
  %57 = phi double [ %55, %50 ], [ 0.000000e+00, %47 ]
  %58 = load i64, ptr %5, align 8
  %59 = lshr i64 %58, 1
  %60 = add i64 %59, %32
  %61 = udiv i64 %60, %58
  tail call void (ptr, ptr, ...) @_ZN12outputStream5printEPKcz(ptr noundef nonnull align 8 dereferenceable(56) %7, ptr noundef nonnull @.str.63, i64 noundef %61, ptr noundef %9, double noundef %57) #7
  %.not37 = icmp eq i64 %42, 0
  br i1 %.not37, label %63, label %62

62:                                               ; preds = %56
  tail call void (ptr, ptr, ...) @_ZN12outputStream5printEPKcz(ptr noundef nonnull align 8 dereferenceable(56) %7, ptr noundef nonnull @.str.49, i64 noundef %42, ptr noundef %9) #7
  br label %63

63:                                               ; preds = %62, %56
  tail call void (ptr, ptr, ...) @_ZN12outputStream8print_crEPKcz(ptr noundef nonnull align 8 dereferenceable(56) %7, ptr noundef nonnull @.str.10) #7
  ret void
}